target datalayout = "e-m:e-p270:32:32-p271:32:32-p272:64:64-i64:64-i128:128-f80:128-n8:16:32:64-S128"
target triple = "x86_64-pc-linux-gnu"

%struct.stbtt__point = type { float, float }

; Function Attrs: mustprogress nounwind uwtable
define internal void @_ZL16stbtt__add_pointP12stbtt__pointiff(ptr noundef %0, i32 noundef %1, float noundef %2, float noundef %3) #3 {
  %5 = alloca ptr, align 8
  %6 = alloca i32, align 4
  %7 = alloca float, align 4
  %8 = alloca float, align 4
  store ptr %0, ptr %5, align 8, !tbaa !129
  store i32 %1, ptr %6, align 4, !tbaa !27
  store float %2, ptr %7, align 4, !tbaa !11
  store float %3, ptr %8, align 4, !tbaa !11
  %9 = load ptr, ptr %5, align 8, !tbaa !129
  %10 = icmp ne ptr %9, null
  br i1 %10, label %12, label %11

11:                                               ; preds = %4
  br label %25

12:                                               ; preds = %4
  %13 = load float, ptr %7, align 4, !tbaa !11
  %14 = load ptr, ptr %5, align 8, !tbaa !129
  %15 = load i32, ptr %6, align 4, !tbaa !27
  %16 = sext i32 %15 to i64
  %17 = getelementptr inbounds %struct.stbtt__point, ptr %14, i64 %16
  %18 = getelementptr inbounds nuw %struct.stbtt__point, ptr %17, i32 0, i32 0
  store float %13, ptr %18, align 4, !tbaa !717
  %19 = load float, ptr %8, align 4, !tbaa !11
  %20 = load ptr, ptr %5, align 8, !tbaa !129
  %21 = load i32, ptr %6, align 4, !tbaa !27
  %22 = sext i32 %21 to i64
  %23 = getelementptr inbounds %struct.stbtt__point, ptr %20, i64 %22
  %24 = getelementptr inbounds nuw %struct.stbtt__point, ptr %23, i32 0, i32 1
  store float %19, ptr %24, align 4, !tbaa !713
  br label %25

25:                                               ; preds = %12, %11
  ret void
}

; Function Attrs: mustprogress uwtable
define internal noundef i32 @_ZL22stbtt__tesselate_curveP12stbtt__pointPifffffffi(ptr noundef %0, ptr noundef %1, float noundef %2, float noundef %3, float noundef %4, float noundef %5, float noundef %6, float noundef %7, float noundef %8, i32 noundef %9) #6 {
  %11 = alloca i32, align 4
  %12 = alloca ptr, align 8
  %13 = alloca ptr, align 8
  %14 = alloca float, align 4
  %15 = alloca float, align 4
  %16 = alloca float, align 4
  %17 = alloca float, align 4
  %18 = alloca float, align 4
  %19 = alloca float, align 4
  %20 = alloca float, align 4
  %21 = alloca i32, align 4
  %22 = alloca float, align 4
  %23 = alloca float, align 4
  %24 = alloca float, align 4
  %25 = alloca float, align 4
  %26 = alloca i32, align 4
  store ptr %0, ptr %12, align 8, !tbaa !129
  store ptr %1, ptr %13, align 8, !tbaa !244
  store float %2, ptr %14, align 4, !tbaa !11
  store float %3, ptr %15, align 4, !tbaa !11
  store float %4, ptr %16, align 4, !tbaa !11
  store float %5, ptr %17, align 4, !tbaa !11
  store float %6, ptr %18, align 4, !tbaa !11
  store float %7, ptr %19, align 4, !tbaa !11
  store float %8, ptr %20, align 4, !tbaa !11
  store i32 %9, ptr %21, align 4, !tbaa !27
  call void @llvm.lifetime.start.p0(i64 4, ptr %22) #17
  %27 = load float, ptr %14, align 4, !tbaa !11
  %28 = load float, ptr %16, align 4, !tbaa !11
  %29 = call float @llvm.fmuladd.f32(float 2.000000e+00, float %28, float %27)
  %30 = load float, ptr %18, align 4, !tbaa !11
  %31 = fadd float %29, %30
  %32 = fdiv float %31, 4.000000e+00
  store float %32, ptr %22, align 4, !tbaa !11
  call void @llvm.lifetime.start.p0(i64 4, ptr %23) #17
  %33 = load float, ptr %15, align 4, !tbaa !11
  %34 = load float, ptr %17, align 4, !tbaa !11
  %35 = call float @llvm.fmuladd.f32(float 2.000000e+00, float %34, float %33)
  %36 = load float, ptr %19, align 4, !tbaa !11
  %37 = fadd float %35, %36
  %38 = fdiv float %37, 4.000000e+00
  store float %38, ptr %23, align 4, !tbaa !11
  call void @llvm.lifetime.start.p0(i64 4, ptr %24) #17
  %39 = load float, ptr %14, align 4, !tbaa !11
  %40 = load float, ptr %18, align 4, !tbaa !11
  %41 = fadd float %39, %40
  %42 = fdiv float %41, 2.000000e+00
  %43 = load float, ptr %22, align 4, !tbaa !11
  %44 = fsub float %42, %43
  store float %44, ptr %24, align 4, !tbaa !11
  call void @llvm.lifetime.start.p0(i64 4, ptr %25) #17
  %45 = load float, ptr %15, align 4, !tbaa !11
  %46 = load float, ptr %19, align 4, !tbaa !11
  %47 = fadd float %45, %46
  %48 = fdiv float %47, 2.000000e+00
  %49 = load float, ptr %23, align 4, !tbaa !11
  %50 = fsub float %48, %49
  store float %50, ptr %25, align 4, !tbaa !11
  %51 = load i32, ptr %21, align 4, !tbaa !27
  %52 = icmp sgt i32 %51, 16
  br i1 %52, label %53, label %54

53:                                               ; preds = %10
  store i32 1, ptr %11, align 4
  store i32 1, ptr %26, align 4
  br label %111

54:                                               ; preds = %10
  %55 = load float, ptr %24, align 4, !tbaa !11
  %56 = load float, ptr %24, align 4, !tbaa !11
  %57 = load float, ptr %25, align 4, !tbaa !11
  %58 = load float, ptr %25, align 4, !tbaa !11
  %59 = fmul float %57, %58
  %60 = call float @llvm.fmuladd.f32(float %55, float %56, float %59)
  %61 = load float, ptr %20, align 4, !tbaa !11
  %62 = fcmp ogt float %60, %61
  br i1 %62, label %63, label %100

63:                                               ; preds = %54
  %64 = load ptr, ptr %12, align 8, !tbaa !129
  %65 = load ptr, ptr %13, align 8, !tbaa !244
  %66 = load float, ptr %14, align 4, !tbaa !11
  %67 = load float, ptr %15, align 4, !tbaa !11
  %68 = load float, ptr %14, align 4, !tbaa !11
  %69 = load float, ptr %16, align 4, !tbaa !11
  %70 = fadd float %68, %69
  %71 = fdiv float %70, 2.000000e+00
  %72 = load float, ptr %15, align 4, !tbaa !11
  %73 = load float, ptr %17, align 4, !tbaa !11
  %74 = fadd float %72, %73
  %75 = fdiv float %74, 2.000000e+00
  %76 = load float, ptr %22, align 4, !tbaa !11
  %77 = load float, ptr %23, align 4, !tbaa !11
  %78 = load float, ptr %20, align 4, !tbaa !11
  %79 = load i32, ptr %21, align 4, !tbaa !27
  %80 = add nsw i32 %79, 1
  %81 = call noundef i32 @_ZL22stbtt__tesselate_curveP12stbtt__pointPifffffffi(ptr noundef %64, ptr noundef %65, float noundef %66, float noundef %67, float noundef %71, float noundef %75, float noundef %76, float noundef %77, float noundef %78, i32 noundef %80)
  %82 = load ptr, ptr %12, align 8, !tbaa !129
  %83 = load ptr, ptr %13, align 8, !tbaa !244
  %84 = load float, ptr %22, align 4, !tbaa !11
  %85 = load float, ptr %23, align 4, !tbaa !11
  %86 = load float, ptr %16, align 4, !tbaa !11
  %87 = load float, ptr %18, align 4, !tbaa !11
  %88 = fadd float %86, %87
  %89 = fdiv float %88, 2.000000e+00
  %90 = load float, ptr %17, align 4, !tbaa !11
  %91 = load float, ptr %19, align 4, !tbaa !11
  %92 = fadd float %90, %91
  %93 = fdiv float %92, 2.000000e+00
  %94 = load float, ptr %18, align 4, !tbaa !11
  %95 = load float, ptr %19, align 4, !tbaa !11
  %96 = load float, ptr %20, align 4, !tbaa !11
  %97 = load i32, ptr %21, align 4, !tbaa !27
  %98 = add nsw i32 %97, 1
  %99 = call noundef i32 @_ZL22stbtt__tesselate_curveP12stbtt__pointPifffffffi(ptr noundef %82, ptr noundef %83, float noundef %84, float noundef %85, float noundef %89, float noundef %93, float noundef %94, float noundef %95, float noundef %96, i32 noundef %98)
  br label %110

100:                                              ; preds = %54
  %101 = load ptr, ptr %12, align 8, !tbaa !129
  %102 = load ptr, ptr %13, align 8, !tbaa !244
  %103 = load i32, ptr %102, align 4, !tbaa !27
  %104 = load float, ptr %18, align 4, !tbaa !11
  %105 = load float, ptr %19, align 4, !tbaa !11
  call void @_ZL16stbtt__add_pointP12stbtt__pointiff(ptr noundef %101, i32 noundef %103, float noundef %104, float noundef %105)
  %106 = load ptr, ptr %13, align 8, !tbaa !244
  %107 = load i32, ptr %106, align 4, !tbaa !27
  %108 = add nsw i32 %107, 1
  %109 = load ptr, ptr %13, align 8, !tbaa !244
  store i32 %108, ptr %109, align 4, !tbaa !27
  br label %110

110:                                              ; preds = %100, %63
  store i32 1, ptr %11, align 4
  store i32 1, ptr %26, align 4
  br label %111

111:                                              ; preds = %110, %53
  call void @llvm.lifetime.end.p0(i64 4, ptr %25) #17
  call void @llvm.lifetime.end.p0(i64 4, ptr %24) #17
  call void @llvm.lifetime.end.p0(i64 4, ptr %23) #17
  call void @llvm.lifetime.end.p0(i64 4, ptr %22) #17
  %112 = load i32, ptr %11, align 4
  ret i32 %112
}